target datalayout = "e-m:e-p270:32:32-p271:32:32-p272:64:64-i64:64-i128:128-f80:128-n8:16:32:64-S128"
target triple = "x86_64-unknown-linux-gnu"

%struct.ObjectClass = type { ptr, ptr, [4 x ptr], [4 x ptr], ptr, ptr }
%struct._GSList = type { ptr, ptr }
%struct.TPMIfClass = type { %struct.InterfaceClass, i32, ptr, ptr }
%struct.InterfaceClass = type { %struct.ObjectClass, ptr, ptr }
%struct.TpmModelList = type { ptr, i32 }

@.str.2 = private unnamed_addr constant [7 x i8] c"tpm-if\00", align 1
@.str.15 = private unnamed_addr constant [99 x i8] c"/home/dtcxzyw/WorkSpace/Projects/compilers/llvm-opt-benchmark/bench/qemu/qemu/include/sysemu/tpm.h\00", align 1
@__func__.TPM_IF_CLASS = private unnamed_addr constant [13 x i8] c"TPM_IF_CLASS\00", align 1

; Function Attrs: nounwind sspstrong uwtable
define internal ptr @TPM_IF_CLASS(ptr noundef %klass) #0 {
entry:
  %klass.addr = alloca ptr, align 8
  store ptr %klass, ptr %klass.addr, align 8
  %0 = load ptr, ptr %klass.addr, align 8
  %call = call ptr @object_class_dynamic_cast_assert(ptr noundef %0, ptr noundef @.str.2, ptr noundef @.str.15, i32 noundef 33, ptr noundef @__func__.TPM_IF_CLASS)
  ret ptr %call
}

; Function Attrs: nounwind sspstrong uwtable
define dso_local ptr @qmp_query_tpm_models(ptr noundef %errp) #0 {
entry:
  %errp.addr = alloca ptr, align 8
  %head = alloca ptr, align 8
  %tail = alloca ptr, align 8
  %e = alloca ptr, align 8
  %l = alloca ptr, align 8
  %c = alloca ptr, align 8
  store ptr %errp, ptr %errp.addr, align 8
  store ptr null, ptr %head, align 8
  store ptr %head, ptr %tail, align 8
  %call = call ptr @object_class_get_list(ptr noundef @.str.2, i1 noundef zeroext false)
  store ptr %call, ptr %l, align 8
  %0 = load ptr, ptr %l, align 8
  store ptr %0, ptr %e, align 8
  br label %for.cond

for.cond:                                         ; preds = %for.inc, %entry
  %1 = load ptr, ptr %e, align 8
  %tobool = icmp ne ptr %1, null
  br i1 %tobool, label %for.body, label %for.end

for.body:                                         ; preds = %for.cond
  %2 = load ptr, ptr %e, align 8
  %data = getelementptr inbounds %struct._GSList, ptr %2, i32 0, i32 0
  %3 = load ptr, ptr %data, align 8
  %call1 = call ptr @TPM_IF_CLASS(ptr noundef %3)
  store ptr %call1, ptr %c, align 8
  br label %do.body

do.body:                                          ; preds = %for.body
  %call2 = call noalias ptr @g_malloc0(i64 noundef 16) #5
  %4 = load ptr, ptr %tail, align 8
  store ptr %call2, ptr %4, align 8
  %5 = load ptr, ptr %c, align 8
  %model = getelementptr inbounds %struct.TPMIfClass, ptr %5, i32 0, i32 1
  %6 = load i32, ptr %model, align 8
  %7 = load ptr, ptr %tail, align 8
  %8 = load ptr, ptr %7, align 8
  %value = getelementptr inbounds %struct.TpmModelList, ptr %8, i32 0, i32 1
  store i32 %6, ptr %value, align 8
  %9 = load ptr, ptr %tail, align 8
  %10 = load ptr, ptr %9, align 8
  %next = getelementptr inbounds %struct.TpmModelList, ptr %10, i32 0, i32 0
  store ptr %next, ptr %tail, align 8
  br label %do.end

do.end:                                           ; preds = %do.body
  br label %for.inc

for.inc:                                          ; preds = %do.end
  %11 = load ptr, ptr %e, align 8
  %next3 = getelementptr inbounds %struct._GSList, ptr %11, i32 0, i32 1
  %12 = load ptr, ptr %next3, align 8
  store ptr %12, ptr %e, align 8
  br label %for.cond, !llvm.loop !11

for.end:                                          ; preds = %for.cond
  %13 = load ptr, ptr %l, align 8
  call void @g_slist_free(ptr noundef %13)
  %14 = load ptr, ptr %head, align 8
  ret ptr %14
}