; Function Attrs: nounwind sspstrong uwtable
define dso_local ptr @qmp_query_tpm_models(ptr noundef readnone captures(none) %errp) local_unnamed_addr #2 {
entry:
  %head = alloca ptr, align 8
  store ptr null, ptr %head, align 8
  %call = tail call ptr @object_class_get_list(ptr noundef nonnull @.str.2, i1 noundef zeroext false) #7
  %tobool.not6 = icmp eq ptr %call, null
  br i1 %tobool.not6, label %for.end, label %for.body

for.body:                                         ; preds = %entry, %for.body
  %tail.08 = phi ptr [ %2, %for.body ], [ %head, %entry ]
  %e.07 = phi ptr [ %3, %for.body ], [ %call, %entry ]
  %0 = load ptr, ptr %e.07, align 8
  %call.i = tail call ptr @object_class_dynamic_cast_assert(ptr noundef %0, ptr noundef nonnull @.str.2, ptr noundef nonnull @.str.15, i32 noundef 33, ptr noundef nonnull @__func__.TPM_IF_CLASS) #7
  %call2 = tail call noalias dereferenceable_or_null(16) ptr @g_malloc0(i64 noundef 16) #8
  store ptr %call2, ptr %tail.08, align 8
  %model = getelementptr inbounds nuw i8, ptr %call.i, i64 112
  %1 = load i32, ptr %model, align 8
  %value = getelementptr inbounds nuw i8, ptr %call2, i64 8
  store i32 %1, ptr %value, align 8
  %2 = load ptr, ptr %tail.08, align 8
  %next3 = getelementptr inbounds nuw i8, ptr %e.07, i64 8
  %3 = load ptr, ptr %next3, align 8
  %tobool.not = icmp eq ptr %3, null
  br i1 %tobool.not, label %for.end.loopexit, label %for.body, !llvm.loop !11

for.end.loopexit:                                 ; preds = %for.body
  %head.0.head.0.head.0.head.0..pre = load ptr, ptr %head, align 8
  br label %for.end

for.end:                                          ; preds = %for.end.loopexit, %entry
  %head.0.head.0.head.0. = phi ptr [ %head.0.head.0.head.0.head.0..pre, %for.end.loopexit ], [ null, %entry ]
  tail call void @g_slist_free(ptr noundef %call) #7
  ret ptr %head.0.head.0.head.0.
}